                              1 ;--------------------------------------------------------
                              2 ; File Created by SDCC : free open source ANSI-C Compiler
                              3 ; Version 3.6.0 #9615 (Mac OS X x86_64)
                              4 ;--------------------------------------------------------
                              5 	.module shooting
                              6 	.optsdcc -mgbz80
                              7 	
                              8 ;--------------------------------------------------------
                              9 ; Public variables in this module
                             10 ;--------------------------------------------------------
                             11 	.globl _main
                             12 	.globl _move_sprite
                             13 	.globl _set_sprite_tile
                             14 	.globl _set_sprite_data
                             15 	.globl _set_bkg_tiles
                             16 	.globl _set_bkg_data
                             17 	.globl _wait_vbl_done
                             18 	.globl _joypad
                             19 	.globl _initrand
                             20 	.globl _bullets
                             21 	.globl _shooting
                             22 	.globl _bulletDir
                             23 	.globl _bulletLive
                             24 	.globl _bulletY
                             25 	.globl _bulletX
                             26 	.globl _randomBkgTiles
                             27 	.globl _lastKeys
                             28 	.globl _eY
                             29 	.globl _eX
                             30 	.globl _playerDir
                             31 	.globl _playerY
                             32 	.globl _playerX
                             33 	.globl _j
                             34 	.globl _i
                             35 	.globl _myBkgData
                             36 	.globl _sprites
                             37 	.globl _initGame
                             38 	.globl _updatePlayer
                             39 	.globl _collisionCheck
                             40 ;--------------------------------------------------------
                             41 ; ram data
                             42 ;--------------------------------------------------------
                             43 	.area _DATA
   0000                      44 _i::
   0000                      45 	.ds 1
   0001                      46 _j::
   0001                      47 	.ds 1
   0002                      48 _playerX::
   0002                      49 	.ds 1
   0003                      50 _playerY::
   0003                      51 	.ds 1
   0004                      52 _playerDir::
   0004                      53 	.ds 1
   0005                      54 _eX::
   0005                      55 	.ds 10
   000F                      56 _eY::
   000F                      57 	.ds 10
   0019                      58 _lastKeys::
   0019                      59 	.ds 1
   001A                      60 _randomBkgTiles::
   001A                      61 	.ds 20
   002E                      62 _bulletX::
   002E                      63 	.ds 1
   002F                      64 _bulletY::
   002F                      65 	.ds 1
   0030                      66 _bulletLive::
   0030                      67 	.ds 1
   0031                      68 _bulletDir::
   0031                      69 	.ds 1
   0032                      70 _shooting::
   0032                      71 	.ds 1
   0033                      72 _bullets::
   0033                      73 	.ds 4
                             74 ;--------------------------------------------------------
                             75 ; absolute external ram data
                             76 ;--------------------------------------------------------
                             77 	.area _DABS (ABS)
                             78 ;--------------------------------------------------------
                             79 ; global & static initialisations
                             80 ;--------------------------------------------------------
                             81 	.area _HOME
                             82 	.area _GSINIT
                             83 	.area _GSFINAL
                             84 	.area _GSINIT
                             85 ;--------------------------------------------------------
                             86 ; Home
                             87 ;--------------------------------------------------------
                             88 	.area _HOME
                             89 	.area _HOME
                             90 ;--------------------------------------------------------
                             91 ; code
                             92 ;--------------------------------------------------------
                             93 	.area _CODE
                             94 ;shooting.c:32: void main() {
                             95 ;	---------------------------------
                             96 ; Function main
                             97 ; ---------------------------------
   0000                      98 _main::
                             99 ;shooting.c:34: initGame();
   0000 CDr6Fr01            100 	call	_initGame
                            101 ;shooting.c:36: while(1) {
   0003                     102 00102$:
                            103 ;shooting.c:37: updatePlayer(); // update player position
   0003 CDr0Ar03            104 	call	_updatePlayer
                            105 ;shooting.c:38: HIDE_WIN; // Hide window layer - no windows used
   0006 11 40 FF            106 	ld	de,#0xff40
   0009 1A                  107 	ld	a,(de)
   000A 4F                  108 	ld	c,a
   000B 06 00               109 	ld	b,#0x00
   000D CB A9               110 	res	5, c
   000F 06 00               111 	ld	b,#0x00
   0011 21 40 FF            112 	ld	hl,#0xff40
   0014 71                  113 	ld	(hl),c
                            114 ;shooting.c:39: SHOW_SPRITES; // Show sprites layer
   0015 11 40 FF            115 	ld	de,#0xff40
   0018 1A                  116 	ld	a,(de)
   0019 4F                  117 	ld	c,a
   001A 06 00               118 	ld	b,#0x00
   001C 79                  119 	ld	a,c
   001D CB CF               120 	set	1, a
   001F 4F                  121 	ld	c,a
   0020 2E 40               122 	ld	l, #0x40
   0022 71                  123 	ld	(hl),c
                            124 ;shooting.c:40: SHOW_BKG; // Show background layer
   0023 11 40 FF            125 	ld	de,#0xff40
   0026 1A                  126 	ld	a,(de)
   0027 4F                  127 	ld	c,a
   0028 06 00               128 	ld	b,#0x00
   002A 79                  129 	ld	a,c
   002B CB C7               130 	set	0, a
   002D 4F                  131 	ld	c,a
   002E 2E 40               132 	ld	l, #0x40
   0030 71                  133 	ld	(hl),c
                            134 ;shooting.c:41: lastKeys = joypad(); // Update keypresses
   0031 CDr00r00            135 	call	_joypad
   0034 21r19r00            136 	ld	hl,#_lastKeys
   0037 73                  137 	ld	(hl),e
                            138 ;shooting.c:42: wait_vbl_done(); // Wait for vblank to finish - ensures a 60fps max
   0038 CDr00r00            139 	call	_wait_vbl_done
   003B C3r03r00            140 	jp	00102$
   003E C9                  141 	ret
   003F                     142 _sprites:
   003F FF                  143 	.db #0xff	; 255
   0040 FF                  144 	.db #0xff	; 255
   0041 81                  145 	.db #0x81	; 129
   0042 81                  146 	.db #0x81	; 129
   0043 A5                  147 	.db #0xa5	; 165
   0044 A5                  148 	.db #0xa5	; 165
   0045 A5                  149 	.db #0xa5	; 165
   0046 A5                  150 	.db #0xa5	; 165
   0047 81                  151 	.db #0x81	; 129
   0048 81                  152 	.db #0x81	; 129
   0049 99                  153 	.db #0x99	; 153
   004A 99                  154 	.db #0x99	; 153
   004B 81                  155 	.db #0x81	; 129
   004C 81                  156 	.db #0x81	; 129
   004D FF                  157 	.db #0xff	; 255
   004E FF                  158 	.db #0xff	; 255
   004F 3C                  159 	.db #0x3c	; 60
   0050 3C                  160 	.db #0x3c	; 60
   0051 42                  161 	.db #0x42	; 66	'B'
   0052 42                  162 	.db #0x42	; 66	'B'
   0053 81                  163 	.db #0x81	; 129
   0054 81                  164 	.db #0x81	; 129
   0055 ED                  165 	.db #0xed	; 237
   0056 ED                  166 	.db #0xed	; 237
   0057 81                  167 	.db #0x81	; 129
   0058 81                  168 	.db #0x81	; 129
   0059 91                  169 	.db #0x91	; 145
   005A 91                  170 	.db #0x91	; 145
   005B 42                  171 	.db #0x42	; 66	'B'
   005C 42                  172 	.db #0x42	; 66	'B'
   005D 3C                  173 	.db #0x3c	; 60
   005E 3C                  174 	.db #0x3c	; 60
   005F 99                  175 	.db #0x99	; 153
   0060 81                  176 	.db #0x81	; 129
   0061 42                  177 	.db #0x42	; 66	'B'
   0062 5A                  178 	.db #0x5a	; 90	'Z'
   0063 24                  179 	.db #0x24	; 36
   0064 3C                  180 	.db #0x3c	; 60
   0065 99                  181 	.db #0x99	; 153
   0066 7E                  182 	.db #0x7e	; 126
   0067 99                  183 	.db #0x99	; 153
   0068 7E                  184 	.db #0x7e	; 126
   0069 24                  185 	.db #0x24	; 36
   006A 3C                  186 	.db #0x3c	; 60
   006B 42                  187 	.db #0x42	; 66	'B'
   006C 5A                  188 	.db #0x5a	; 90	'Z'
   006D 99                  189 	.db #0x99	; 153
   006E 81                  190 	.db #0x81	; 129
   006F 38                  191 	.db #0x38	; 56	'8'
   0070 04                  192 	.db #0x04	; 4
   0071 7C                  193 	.db #0x7c	; 124
   0072 02                  194 	.db #0x02	; 2
   0073 5C                  195 	.db #0x5c	; 92
   0074 22                  196 	.db #0x22	; 34
   0075 5C                  197 	.db #0x5c	; 92
   0076 22                  198 	.db #0x22	; 34
   0077 5C                  199 	.db #0x5c	; 92
   0078 22                  200 	.db #0x22	; 34
   0079 5C                  201 	.db #0x5c	; 92
   007A 22                  202 	.db #0x22	; 34
   007B 7C                  203 	.db #0x7c	; 124
   007C 02                  204 	.db #0x02	; 2
   007D 38                  205 	.db #0x38	; 56	'8'
   007E 04                  206 	.db #0x04	; 4
   007F 00                  207 	.db #0x00	; 0
   0080 00                  208 	.db #0x00	; 0
   0081 3E                  209 	.db #0x3e	; 62
   0082 3E                  210 	.db #0x3e	; 62
   0083 63                  211 	.db #0x63	; 99	'c'
   0084 63                  212 	.db #0x63	; 99	'c'
   0085 63                  213 	.db #0x63	; 99	'c'
   0086 63                  214 	.db #0x63	; 99	'c'
   0087 63                  215 	.db #0x63	; 99	'c'
   0088 63                  216 	.db #0x63	; 99	'c'
   0089 63                  217 	.db #0x63	; 99	'c'
   008A 63                  218 	.db #0x63	; 99	'c'
   008B 3E                  219 	.db #0x3e	; 62
   008C 3E                  220 	.db #0x3e	; 62
   008D 00                  221 	.db #0x00	; 0
   008E 00                  222 	.db #0x00	; 0
   008F 00                  223 	.db #0x00	; 0
   0090 00                  224 	.db #0x00	; 0
   0091 1C                  225 	.db #0x1c	; 28
   0092 1C                  226 	.db #0x1c	; 28
   0093 3C                  227 	.db #0x3c	; 60
   0094 3C                  228 	.db #0x3c	; 60
   0095 6C                  229 	.db #0x6c	; 108	'l'
   0096 6C                  230 	.db #0x6c	; 108	'l'
   0097 0C                  231 	.db #0x0c	; 12
   0098 0C                  232 	.db #0x0c	; 12
   0099 0C                  233 	.db #0x0c	; 12
   009A 0C                  234 	.db #0x0c	; 12
   009B 7F                  235 	.db #0x7f	; 127
   009C 7F                  236 	.db #0x7f	; 127
   009D 00                  237 	.db #0x00	; 0
   009E 00                  238 	.db #0x00	; 0
   009F 00                  239 	.db #0x00	; 0
   00A0 00                  240 	.db #0x00	; 0
   00A1 3E                  241 	.db #0x3e	; 62
   00A2 3E                  242 	.db #0x3e	; 62
   00A3 63                  243 	.db #0x63	; 99	'c'
   00A4 63                  244 	.db #0x63	; 99	'c'
   00A5 03                  245 	.db #0x03	; 3
   00A6 03                  246 	.db #0x03	; 3
   00A7 1E                  247 	.db #0x1e	; 30
   00A8 1E                  248 	.db #0x1e	; 30
   00A9 70                  249 	.db #0x70	; 112	'p'
   00AA 70                  250 	.db #0x70	; 112	'p'
   00AB 7F                  251 	.db #0x7f	; 127
   00AC 7F                  252 	.db #0x7f	; 127
   00AD 00                  253 	.db #0x00	; 0
   00AE 00                  254 	.db #0x00	; 0
   00AF 00                  255 	.db #0x00	; 0
   00B0 00                  256 	.db #0x00	; 0
   00B1 7F                  257 	.db #0x7f	; 127
   00B2 7F                  258 	.db #0x7f	; 127
   00B3 03                  259 	.db #0x03	; 3
   00B4 03                  260 	.db #0x03	; 3
   00B5 3E                  261 	.db #0x3e	; 62
   00B6 3E                  262 	.db #0x3e	; 62
   00B7 07                  263 	.db #0x07	; 7
   00B8 07                  264 	.db #0x07	; 7
   00B9 43                  265 	.db #0x43	; 67	'C'
   00BA 43                  266 	.db #0x43	; 67	'C'
   00BB 3E                  267 	.db #0x3e	; 62
   00BC 3E                  268 	.db #0x3e	; 62
   00BD 00                  269 	.db #0x00	; 0
   00BE 00                  270 	.db #0x00	; 0
   00BF 00                  271 	.db #0x00	; 0
   00C0 00                  272 	.db #0x00	; 0
   00C1 60                  273 	.db #0x60	; 96
   00C2 60                  274 	.db #0x60	; 96
   00C3 6C                  275 	.db #0x6c	; 108	'l'
   00C4 6C                  276 	.db #0x6c	; 108	'l'
   00C5 6C                  277 	.db #0x6c	; 108	'l'
   00C6 6C                  278 	.db #0x6c	; 108	'l'
   00C7 7F                  279 	.db #0x7f	; 127
   00C8 7F                  280 	.db #0x7f	; 127
   00C9 0C                  281 	.db #0x0c	; 12
   00CA 0C                  282 	.db #0x0c	; 12
   00CB 0C                  283 	.db #0x0c	; 12
   00CC 0C                  284 	.db #0x0c	; 12
   00CD 00                  285 	.db #0x00	; 0
   00CE 00                  286 	.db #0x00	; 0
   00CF 00                  287 	.db #0x00	; 0
   00D0 00                  288 	.db #0x00	; 0
   00D1 7F                  289 	.db #0x7f	; 127
   00D2 7F                  290 	.db #0x7f	; 127
   00D3 60                  291 	.db #0x60	; 96
   00D4 60                  292 	.db #0x60	; 96
   00D5 7E                  293 	.db #0x7e	; 126
   00D6 7E                  294 	.db #0x7e	; 126
   00D7 03                  295 	.db #0x03	; 3
   00D8 03                  296 	.db #0x03	; 3
   00D9 63                  297 	.db #0x63	; 99	'c'
   00DA 63                  298 	.db #0x63	; 99	'c'
   00DB 3E                  299 	.db #0x3e	; 62
   00DC 3E                  300 	.db #0x3e	; 62
   00DD 00                  301 	.db #0x00	; 0
   00DE 00                  302 	.db #0x00	; 0
   00DF 00                  303 	.db #0x00	; 0
   00E0 00                  304 	.db #0x00	; 0
   00E1 3F                  305 	.db #0x3f	; 63
   00E2 3F                  306 	.db #0x3f	; 63
   00E3 60                  307 	.db #0x60	; 96
   00E4 60                  308 	.db #0x60	; 96
   00E5 7E                  309 	.db #0x7e	; 126
   00E6 7E                  310 	.db #0x7e	; 126
   00E7 63                  311 	.db #0x63	; 99	'c'
   00E8 63                  312 	.db #0x63	; 99	'c'
   00E9 63                  313 	.db #0x63	; 99	'c'
   00EA 63                  314 	.db #0x63	; 99	'c'
   00EB 3E                  315 	.db #0x3e	; 62
   00EC 3E                  316 	.db #0x3e	; 62
   00ED 00                  317 	.db #0x00	; 0
   00EE 00                  318 	.db #0x00	; 0
   00EF 00                  319 	.db #0x00	; 0
   00F0 00                  320 	.db #0x00	; 0
   00F1 7F                  321 	.db #0x7f	; 127
   00F2 7F                  322 	.db #0x7f	; 127
   00F3 03                  323 	.db #0x03	; 3
   00F4 03                  324 	.db #0x03	; 3
   00F5 06                  325 	.db #0x06	; 6
   00F6 06                  326 	.db #0x06	; 6
   00F7 0C                  327 	.db #0x0c	; 12
   00F8 0C                  328 	.db #0x0c	; 12
   00F9 18                  329 	.db #0x18	; 24
   00FA 18                  330 	.db #0x18	; 24
   00FB 30                  331 	.db #0x30	; 48	'0'
   00FC 30                  332 	.db #0x30	; 48	'0'
   00FD 00                  333 	.db #0x00	; 0
   00FE 00                  334 	.db #0x00	; 0
   00FF 00                  335 	.db #0x00	; 0
   0100 00                  336 	.db #0x00	; 0
   0101 3E                  337 	.db #0x3e	; 62
   0102 3E                  338 	.db #0x3e	; 62
   0103 63                  339 	.db #0x63	; 99	'c'
   0104 63                  340 	.db #0x63	; 99	'c'
   0105 63                  341 	.db #0x63	; 99	'c'
   0106 63                  342 	.db #0x63	; 99	'c'
   0107 3E                  343 	.db #0x3e	; 62
   0108 3E                  344 	.db #0x3e	; 62
   0109 63                  345 	.db #0x63	; 99	'c'
   010A 63                  346 	.db #0x63	; 99	'c'
   010B 3E                  347 	.db #0x3e	; 62
   010C 3E                  348 	.db #0x3e	; 62
   010D 00                  349 	.db #0x00	; 0
   010E 00                  350 	.db #0x00	; 0
   010F 00                  351 	.db #0x00	; 0
   0110 00                  352 	.db #0x00	; 0
   0111 3E                  353 	.db #0x3e	; 62
   0112 3E                  354 	.db #0x3e	; 62
   0113 63                  355 	.db #0x63	; 99	'c'
   0114 63                  356 	.db #0x63	; 99	'c'
   0115 63                  357 	.db #0x63	; 99	'c'
   0116 63                  358 	.db #0x63	; 99	'c'
   0117 3F                  359 	.db #0x3f	; 63
   0118 3F                  360 	.db #0x3f	; 63
   0119 03                  361 	.db #0x03	; 3
   011A 03                  362 	.db #0x03	; 3
   011B 7E                  363 	.db #0x7e	; 126
   011C 7E                  364 	.db #0x7e	; 126
   011D 00                  365 	.db #0x00	; 0
   011E 00                  366 	.db #0x00	; 0
   011F                     367 _myBkgData:
   011F 00                  368 	.db #0x00	; 0
   0120 00                  369 	.db #0x00	; 0
   0121 00                  370 	.db #0x00	; 0
   0122 00                  371 	.db #0x00	; 0
   0123 00                  372 	.db #0x00	; 0
   0124 00                  373 	.db #0x00	; 0
   0125 00                  374 	.db #0x00	; 0
   0126 00                  375 	.db #0x00	; 0
   0127 00                  376 	.db #0x00	; 0
   0128 00                  377 	.db #0x00	; 0
   0129 00                  378 	.db #0x00	; 0
   012A 00                  379 	.db #0x00	; 0
   012B 00                  380 	.db #0x00	; 0
   012C 00                  381 	.db #0x00	; 0
   012D 00                  382 	.db #0x00	; 0
   012E 00                  383 	.db #0x00	; 0
   012F 00                  384 	.db #0x00	; 0
   0130 00                  385 	.db #0x00	; 0
   0131 08                  386 	.db #0x08	; 8
   0132 00                  387 	.db #0x00	; 0
   0133 08                  388 	.db #0x08	; 8
   0134 00                  389 	.db #0x00	; 0
   0135 36                  390 	.db #0x36	; 54	'6'
   0136 00                  391 	.db #0x00	; 0
   0137 08                  392 	.db #0x08	; 8
   0138 00                  393 	.db #0x00	; 0
   0139 08                  394 	.db #0x08	; 8
   013A 00                  395 	.db #0x00	; 0
   013B 00                  396 	.db #0x00	; 0
   013C 00                  397 	.db #0x00	; 0
   013D 00                  398 	.db #0x00	; 0
   013E 00                  399 	.db #0x00	; 0
   013F 00                  400 	.db #0x00	; 0
   0140 00                  401 	.db #0x00	; 0
   0141 00                  402 	.db #0x00	; 0
   0142 00                  403 	.db #0x00	; 0
   0143 20                  404 	.db #0x20	; 32
   0144 00                  405 	.db #0x00	; 0
   0145 50                  406 	.db #0x50	; 80	'P'
   0146 00                  407 	.db #0x00	; 0
   0147 20                  408 	.db #0x20	; 32
   0148 00                  409 	.db #0x00	; 0
   0149 00                  410 	.db #0x00	; 0
   014A 00                  411 	.db #0x00	; 0
   014B 00                  412 	.db #0x00	; 0
   014C 00                  413 	.db #0x00	; 0
   014D 00                  414 	.db #0x00	; 0
   014E 00                  415 	.db #0x00	; 0
   014F 00                  416 	.db #0x00	; 0
   0150 00                  417 	.db #0x00	; 0
   0151 00                  418 	.db #0x00	; 0
   0152 00                  419 	.db #0x00	; 0
   0153 00                  420 	.db #0x00	; 0
   0154 00                  421 	.db #0x00	; 0
   0155 00                  422 	.db #0x00	; 0
   0156 00                  423 	.db #0x00	; 0
   0157 00                  424 	.db #0x00	; 0
   0158 00                  425 	.db #0x00	; 0
   0159 04                  426 	.db #0x04	; 4
   015A 00                  427 	.db #0x00	; 0
   015B 0E                  428 	.db #0x0e	; 14
   015C 00                  429 	.db #0x00	; 0
   015D 04                  430 	.db #0x04	; 4
   015E 00                  431 	.db #0x00	; 0
   015F 00                  432 	.db #0x00	; 0
   0160 00                  433 	.db #0x00	; 0
   0161 00                  434 	.db #0x00	; 0
   0162 00                  435 	.db #0x00	; 0
   0163 00                  436 	.db #0x00	; 0
   0164 00                  437 	.db #0x00	; 0
   0165 00                  438 	.db #0x00	; 0
   0166 00                  439 	.db #0x00	; 0
   0167 50                  440 	.db #0x50	; 80	'P'
   0168 00                  441 	.db #0x00	; 0
   0169 20                  442 	.db #0x20	; 32
   016A 00                  443 	.db #0x00	; 0
   016B 50                  444 	.db #0x50	; 80	'P'
   016C 00                  445 	.db #0x00	; 0
   016D 00                  446 	.db #0x00	; 0
   016E 00                  447 	.db #0x00	; 0
                            448 ;shooting.c:46: void initGame(){
                            449 ;	---------------------------------
                            450 ; Function initGame
                            451 ; ---------------------------------
   016F                     452 _initGame::
   016F 3B                  453 	dec	sp
                            454 ;shooting.c:47: DISPLAY_ON; // turns on gameboy lcd
   0170 11 40 FF            455 	ld	de,#0xff40
   0173 1A                  456 	ld	a,(de)
   0174 4F                  457 	ld	c,a
   0175 06 00               458 	ld	b,#0x00
   0177 79                  459 	ld	a,c
   0178 CB FF               460 	set	7, a
   017A 4F                  461 	ld	c,a
   017B 21 40 FF            462 	ld	hl,#0xff40
   017E 71                  463 	ld	(hl),c
                            464 ;shooting.c:48: NR52_REG = 0x8F; // sound on
   017F 2E 26               465 	ld	l, #0x26
   0181 36 8F               466 	ld	(hl),#0x8f
                            467 ;shooting.c:49: NR51_REG = 0x11; // both sound channels
   0183 2E 25               468 	ld	l, #0x25
   0185 36 11               469 	ld	(hl),#0x11
                            470 ;shooting.c:50: NR50_REG = 0x77; // volume level, max = 0x77, min = 0x00
   0187 2E 24               471 	ld	l, #0x24
   0189 36 77               472 	ld	(hl),#0x77
                            473 ;shooting.c:52: initrand(DIV_REG); // part of gb/rand.h, want to use DIV_REG as per the documentation
   018B 11 04 FF            474 	ld	de,#0xff04
   018E 1A                  475 	ld	a,(de)
   018F 4F                  476 	ld	c,a
   0190 06 00               477 	ld	b,#0x00
   0192 C5                  478 	push	bc
   0193 CDr00r00            479 	call	_initrand
   0196 E8 02               480 	add	sp, #2
                            481 ;shooting.c:53: set_sprite_data(0, 14, sprites); // storing sprite data
   0198 21r3Fr00            482 	ld	hl,#_sprites
   019B E5                  483 	push	hl
   019C 21 00 0E            484 	ld	hl,#0x0e00
   019F E5                  485 	push	hl
   01A0 CDr00r00            486 	call	_set_sprite_data
   01A3 E8 04               487 	add	sp, #4
                            488 ;shooting.c:54: set_bkg_data(0, 4, myBkgData); // storing background data - window layer shares this
   01A5 21r1Fr01            489 	ld	hl,#_myBkgData
   01A8 E5                  490 	push	hl
   01A9 21 00 04            491 	ld	hl,#0x0400
   01AC E5                  492 	push	hl
   01AD CDr00r00            493 	call	_set_bkg_data
   01B0 E8 04               494 	add	sp, #4
                            495 ;shooting.c:56: playerX = 64; // initial x position for player
   01B2 21r02r00            496 	ld	hl,#_playerX
   01B5 36 40               497 	ld	(hl),#0x40
                            498 ;shooting.c:57: playerY = 64; // initial y position for player
   01B7 21r03r00            499 	ld	hl,#_playerY
   01BA 36 40               500 	ld	(hl),#0x40
                            501 ;shooting.c:59: set_sprite_tile(0,0); // sprite tile representing the player - is first sprite, so 0th index
   01BC 21 00 00            502 	ld	hl,#0x0000
   01BF E5                  503 	push	hl
   01C0 CDr00r00            504 	call	_set_sprite_tile
   01C3 E8 02               505 	add	sp, #2
                            506 ;shooting.c:62: for (i=0; i !=10; i++) {
   01C5 21r00r00            507 	ld	hl,#_i
   01C8 36 00               508 	ld	(hl),#0x00
   01CA                     509 00105$:
                            510 ;shooting.c:63: eX[i] = 16+(rand()); // random x position between 16 and 144
   01CA 3Er05               511 	ld	a,#<(_eX)
   01CC 21r00r00            512 	ld	hl,#_i
   01CF 86                  513 	add	a, (hl)
   01D0 4F                  514 	ld	c,a
   01D1 3Es00               515 	ld	a,#>(_eX)
   01D3 CE 00               516 	adc	a, #0x00
   01D5 47                  517 	ld	b,a
   01D6 C5                  518 	push	bc
   01D7 CDr00r00            519 	call	_rand
   01DA C1                  520 	pop	bc
   01DB 7B                  521 	ld	a,e
   01DC C6 10               522 	add	a, #0x10
   01DE 02                  523 	ld	(bc),a
                            524 ;shooting.c:64: eY[i] = 16+(rand()); // random y position between 16 and 144
   01DF 3Er0F               525 	ld	a,#<(_eY)
   01E1 21r00r00            526 	ld	hl,#_i
   01E4 86                  527 	add	a, (hl)
   01E5 4F                  528 	ld	c,a
   01E6 3Es00               529 	ld	a,#>(_eY)
   01E8 CE 00               530 	adc	a, #0x00
   01EA 47                  531 	ld	b,a
   01EB C5                  532 	push	bc
   01EC CDr00r00            533 	call	_rand
   01EF C1                  534 	pop	bc
   01F0 7B                  535 	ld	a,e
   01F1 C6 10               536 	add	a, #0x10
   01F3 02                  537 	ld	(bc),a
                            538 ;shooting.c:65: set_sprite_tile(i+1, 2); // enemy sprite tile set to 2
   01F4 21r00r00            539 	ld	hl,#_i
   01F7 46                  540 	ld	b,(hl)
   01F8 04                  541 	inc	b
   01F9 3E 02               542 	ld	a,#0x02
   01FB F5                  543 	push	af
   01FC 33                  544 	inc	sp
   01FD C5                  545 	push	bc
   01FE 33                  546 	inc	sp
   01FF CDr00r00            547 	call	_set_sprite_tile
   0202 E8 02               548 	add	sp, #2
                            549 ;shooting.c:66: move_sprite(i+1,eX[i], eY[i]); // place enemies
   0204 3Er0F               550 	ld	a,#<(_eY)
   0206 21r00r00            551 	ld	hl,#_i
   0209 86                  552 	add	a, (hl)
   020A 4F                  553 	ld	c,a
   020B 3Es00               554 	ld	a,#>(_eY)
   020D CE 00               555 	adc	a, #0x00
   020F 47                  556 	ld	b,a
   0210 0A                  557 	ld	a,(bc)
   0211 F8 00               558 	ldhl	sp,#0
   0213 77                  559 	ld	(hl),a
   0214 3Er05               560 	ld	a,#<(_eX)
   0216 21r00r00            561 	ld	hl,#_i
   0219 86                  562 	add	a, (hl)
   021A 4F                  563 	ld	c,a
   021B 3Es00               564 	ld	a,#>(_eX)
   021D CE 00               565 	adc	a, #0x00
   021F 47                  566 	ld	b,a
   0220 0A                  567 	ld	a,(bc)
   0221 57                  568 	ld	d,a
   0222 46                  569 	ld	b,(hl)
   0223 04                  570 	inc	b
   0224 F8 00               571 	ldhl	sp,#0
   0226 7E                  572 	ld	a,(hl)
   0227 F5                  573 	push	af
   0228 33                  574 	inc	sp
   0229 D5                  575 	push	de
   022A 33                  576 	inc	sp
   022B C5                  577 	push	bc
   022C 33                  578 	inc	sp
   022D CDr00r00            579 	call	_move_sprite
   0230 E8 03               580 	add	sp, #3
                            581 ;shooting.c:62: for (i=0; i !=10; i++) {
   0232 21r00r00            582 	ld	hl,#_i
   0235 34                  583 	inc	(hl)
   0236 7E                  584 	ld	a,(hl)
   0237 D6 0A               585 	sub	a, #0x0a
   0239 C2rCAr01            586 	jp	NZ,00105$
                            587 ;shooting.c:70: shooting = 0;
   023C 21r32r00            588 	ld	hl,#_shooting
   023F 36 00               589 	ld	(hl),#0x00
                            590 ;shooting.c:71: set_sprite_tile(12, 3); // sets sprite tile 03 to index 12
   0241 21 0C 03            591 	ld	hl,#0x030c
   0244 E5                  592 	push	hl
   0245 CDr00r00            593 	call	_set_sprite_tile
   0248 E8 02               594 	add	sp, #2
                            595 ;shooting.c:73: for (i = 0; i != 1; i++) {
   024A 21r00r00            596 	ld	hl,#_i
   024D 36 00               597 	ld	(hl),#0x00
   024F                     598 00107$:
                            599 ;shooting.c:74: bullets[i].x = 0;
   024F 21r00r00            600 	ld	hl,#_i
   0252 4E                  601 	ld	c,(hl)
   0253 06 00               602 	ld	b,#0x00
   0255 CB 21               603 	sla	c
   0257 CB 10               604 	rl	b
   0259 CB 21               605 	sla	c
   025B CB 10               606 	rl	b
   025D 21r33r00            607 	ld	hl,#_bullets
   0260 09                  608 	add	hl,bc
   0261 4D                  609 	ld	c,l
   0262 44                  610 	ld	b,h
   0263 AF                  611 	xor	a, a
   0264 02                  612 	ld	(bc),a
                            613 ;shooting.c:75: bullets[i].y = 0;
   0265 21r00r00            614 	ld	hl,#_i
   0268 4E                  615 	ld	c,(hl)
   0269 06 00               616 	ld	b,#0x00
   026B CB 21               617 	sla	c
   026D CB 10               618 	rl	b
   026F CB 21               619 	sla	c
   0271 CB 10               620 	rl	b
   0273 21r33r00            621 	ld	hl,#_bullets
   0276 09                  622 	add	hl,bc
   0277 4D                  623 	ld	c,l
   0278 44                  624 	ld	b,h
   0279 03                  625 	inc	bc
   027A AF                  626 	xor	a, a
   027B 02                  627 	ld	(bc),a
                            628 ;shooting.c:76: bullets[i].alive = 0;
   027C 21r00r00            629 	ld	hl,#_i
   027F 4E                  630 	ld	c,(hl)
   0280 06 00               631 	ld	b,#0x00
   0282 CB 21               632 	sla	c
   0284 CB 10               633 	rl	b
   0286 CB 21               634 	sla	c
   0288 CB 10               635 	rl	b
   028A 21r33r00            636 	ld	hl,#_bullets
   028D 09                  637 	add	hl,bc
   028E 4D                  638 	ld	c,l
   028F 44                  639 	ld	b,h
   0290 03                  640 	inc	bc
   0291 03                  641 	inc	bc
   0292 AF                  642 	xor	a, a
   0293 02                  643 	ld	(bc),a
                            644 ;shooting.c:77: bullets[i].direction = 0;
   0294 21r00r00            645 	ld	hl,#_i
   0297 4E                  646 	ld	c,(hl)
   0298 06 00               647 	ld	b,#0x00
   029A CB 21               648 	sla	c
   029C CB 10               649 	rl	b
   029E CB 21               650 	sla	c
   02A0 CB 10               651 	rl	b
   02A2 21r33r00            652 	ld	hl,#_bullets
   02A5 09                  653 	add	hl,bc
   02A6 4D                  654 	ld	c,l
   02A7 44                  655 	ld	b,h
   02A8 03                  656 	inc	bc
   02A9 03                  657 	inc	bc
   02AA 03                  658 	inc	bc
   02AB AF                  659 	xor	a, a
   02AC 02                  660 	ld	(bc),a
                            661 ;shooting.c:73: for (i = 0; i != 1; i++) {
   02AD 21r00r00            662 	ld	hl,#_i
   02B0 34                  663 	inc	(hl)
   02B1 7E                  664 	ld	a,(hl)
   02B2 3D                  665 	dec	a
   02B3 C2r4Fr02            666 	jp	NZ,00107$
                            667 ;shooting.c:81: for (j=0; j != 18; j++) {
   02B6 21r01r00            668 	ld	hl,#_j
   02B9 36 00               669 	ld	(hl),#0x00
   02BB                     670 00111$:
                            671 ;shooting.c:82: for (i=0; i != 20; i++) {
   02BB 21r00r00            672 	ld	hl,#_i
   02BE 36 00               673 	ld	(hl),#0x00
   02C0                     674 00109$:
                            675 ;shooting.c:83: randomBkgTiles[i] = rand() % 4;
   02C0 3Er1A               676 	ld	a,#<(_randomBkgTiles)
   02C2 21r00r00            677 	ld	hl,#_i
   02C5 86                  678 	add	a, (hl)
   02C6 4F                  679 	ld	c,a
   02C7 3Es00               680 	ld	a,#>(_randomBkgTiles)
   02C9 CE 00               681 	adc	a, #0x00
   02CB 47                  682 	ld	b,a
   02CC C5                  683 	push	bc
   02CD CDr00r00            684 	call	_rand
   02D0 C1                  685 	pop	bc
   02D1 C5                  686 	push	bc
   02D2 21 04 00            687 	ld	hl,#0x0004
   02D5 E5                  688 	push	hl
   02D6 D5                  689 	push	de
   02D7 CDr00r00            690 	call	__modsint
   02DA E8 04               691 	add	sp, #4
   02DC C1                  692 	pop	bc
   02DD 7B                  693 	ld	a,e
   02DE 02                  694 	ld	(bc),a
                            695 ;shooting.c:82: for (i=0; i != 20; i++) {
   02DF 21r00r00            696 	ld	hl,#_i
   02E2 34                  697 	inc	(hl)
   02E3 7E                  698 	ld	a,(hl)
   02E4 D6 14               699 	sub	a, #0x14
   02E6 20 D8               700 	jr	NZ,00109$
                            701 ;shooting.c:85: set_bkg_tiles(0,j,20,1,randomBkgTiles); // x, y, width, height, background tiles
   02E8 21r1Ar00            702 	ld	hl,#_randomBkgTiles
   02EB E5                  703 	push	hl
   02EC 21 14 01            704 	ld	hl,#0x0114
   02EF E5                  705 	push	hl
   02F0 21r01r00            706 	ld	hl,#_j
   02F3 7E                  707 	ld	a,(hl)
   02F4 F5                  708 	push	af
   02F5 33                  709 	inc	sp
   02F6 AF                  710 	xor	a, a
   02F7 F5                  711 	push	af
   02F8 33                  712 	inc	sp
   02F9 CDr00r00            713 	call	_set_bkg_tiles
   02FC E8 06               714 	add	sp, #6
                            715 ;shooting.c:81: for (j=0; j != 18; j++) {
   02FE 21r01r00            716 	ld	hl,#_j
   0301 34                  717 	inc	(hl)
   0302 7E                  718 	ld	a,(hl)
   0303 D6 12               719 	sub	a, #0x12
   0305 C2rBBr02            720 	jp	NZ,00111$
   0308 33                  721 	inc	sp
   0309 C9                  722 	ret
                            723 ;shooting.c:90: void updatePlayer() {
                            724 ;	---------------------------------
                            725 ; Function updatePlayer
                            726 ; ---------------------------------
   030A                     727 _updatePlayer::
   030A E8 FE               728 	add	sp, #-2
                            729 ;shooting.c:94: if (joypad() & J_UP) {
   030C CDr00r00            730 	call	_joypad
   030F 0E 00               731 	ld	c,#0x00
   0311 CB 53               732 	bit	2, e
   0313 CAr86r03            733 	jp	Z,00112$
                            734 ;shooting.c:96: shooting = 1;
   0316 21r32r00            735 	ld	hl,#_shooting
   0319 36 01               736 	ld	(hl),#0x01
                            737 ;shooting.c:97: playerDir = 0;
   031B 21r04r00            738 	ld	hl,#_playerDir
   031E 36 00               739 	ld	(hl),#0x00
                            740 ;shooting.c:99: if (bullets[0].alive == 0) {
   0320 FAr35r00            741 	ld	a, (#(_bullets + 0x0002) + 0)
   0323 B7                  742 	or	a, a
   0324 C2r79r03            743 	jp	NZ,00108$
                            744 ;shooting.c:100: bullets[0].alive = 1;
   0327 21r35r00            745 	ld	hl,#(_bullets + 0x0002)
   032A 36 01               746 	ld	(hl),#0x01
                            747 ;shooting.c:101: playerY += 2;
   032C 21r03r00            748 	ld	hl,#_playerY
   032F 34                  749 	inc	(hl)
   0330 34                  750 	inc	(hl)
                            751 ;shooting.c:103: if (joypad() & J_LEFT) {
   0331 CDr00r00            752 	call	_joypad
   0334 4B                  753 	ld	c,e
   0335 06 00               754 	ld	b,#0x00
                            755 ;shooting.c:104: bullets[0].direction = 4;
                            756 ;shooting.c:103: if (joypad() & J_LEFT) {
   0337 CB 49               757 	bit	1, c
   0339 28 07               758 	jr	Z,00105$
                            759 ;shooting.c:104: bullets[0].direction = 4;
   033B 21r36r00            760 	ld	hl,#(_bullets + 0x0003)
   033E 36 04               761 	ld	(hl),#0x04
   0340 18 15               762 	jr	00106$
   0342                     763 00105$:
                            764 ;shooting.c:105: } else if (joypad() & J_RIGHT) {
   0342 CDr00r00            765 	call	_joypad
   0345 0E 00               766 	ld	c,#0x00
   0347 CB 43               767 	bit	0, e
   0349 28 07               768 	jr	Z,00102$
                            769 ;shooting.c:106: bullets[0].direction = 5;
   034B 21r36r00            770 	ld	hl,#(_bullets + 0x0003)
   034E 36 05               771 	ld	(hl),#0x05
   0350 18 05               772 	jr	00106$
   0352                     773 00102$:
                            774 ;shooting.c:108: bullets[0].direction = 0;
   0352 21r36r00            775 	ld	hl,#(_bullets + 0x0003)
   0355 36 00               776 	ld	(hl),#0x00
   0357                     777 00106$:
                            778 ;shooting.c:111: bullets[0].x = playerX;
   0357 11r33r00            779 	ld	de,#_bullets
   035A 21r02r00            780 	ld	hl,#_playerX
   035D 7E                  781 	ld	a,(hl)
   035E 12                  782 	ld	(de),a
                            783 ;shooting.c:112: bullets[0].y = playerY;
   035F 11r34r00            784 	ld	de,#(_bullets + 0x0001)
   0362 21r03r00            785 	ld	hl,#_playerY
   0365 7E                  786 	ld	a,(hl)
   0366 12                  787 	ld	(de),a
                            788 ;shooting.c:113: move_sprite(12, bullets[0].x, bullets[0].y); // places sprite on screen
   0367 7E                  789 	ld	a,(hl)
   0368 F5                  790 	push	af
   0369 33                  791 	inc	sp
   036A 21r02r00            792 	ld	hl,#_playerX
   036D 7E                  793 	ld	a,(hl)
   036E F5                  794 	push	af
   036F 33                  795 	inc	sp
   0370 3E 0C               796 	ld	a,#0x0c
   0372 F5                  797 	push	af
   0373 33                  798 	inc	sp
   0374 CDr00r00            799 	call	_move_sprite
   0377 E8 03               800 	add	sp, #3
   0379                     801 00108$:
                            802 ;shooting.c:115: if (playerY == 15) {
   0379 21r03r00            803 	ld	hl,#_playerY
   037C 7E                  804 	ld	a,(hl)
   037D D6 0F               805 	sub	a, #0x0f
   037F 20 05               806 	jr	NZ,00112$
                            807 ;shooting.c:116: playerY = 16;
   0381 21r03r00            808 	ld	hl,#_playerY
   0384 36 10               809 	ld	(hl),#0x10
   0386                     810 00112$:
                            811 ;shooting.c:120: if (joypad() & J_DOWN){
   0386 CDr00r00            812 	call	_joypad
   0389 0E 00               813 	ld	c,#0x00
   038B CB 5B               814 	bit	3, e
   038D CArFFr03            815 	jp	Z,00124$
                            816 ;shooting.c:122: shooting = 1;
   0390 21r32r00            817 	ld	hl,#_shooting
   0393 36 01               818 	ld	(hl),#0x01
                            819 ;shooting.c:123: playerDir = 2;
   0395 21r04r00            820 	ld	hl,#_playerDir
   0398 36 02               821 	ld	(hl),#0x02
                            822 ;shooting.c:125: if (bullets[0].alive == 0) {
   039A 01r35r00            823 	ld	bc,#_bullets + 2
   039D 0A                  824 	ld	a,(bc)
   039E B7                  825 	or	a, a
   039F C2rF2r03            826 	jp	NZ,00120$
                            827 ;shooting.c:126: bullets[0].alive = 1;
   03A2 3E 01               828 	ld	a,#0x01
   03A4 02                  829 	ld	(bc),a
                            830 ;shooting.c:127: playerY -= 2;
   03A5 21r03r00            831 	ld	hl,#_playerY
   03A8 35                  832 	dec	(hl)
   03A9 35                  833 	dec	(hl)
                            834 ;shooting.c:129: if (joypad() & J_LEFT) {
   03AA CDr00r00            835 	call	_joypad
   03AD 4B                  836 	ld	c,e
   03AE 06 00               837 	ld	b,#0x00
                            838 ;shooting.c:130: bullets[0].direction = 7;
                            839 ;shooting.c:129: if (joypad() & J_LEFT) {
   03B0 CB 49               840 	bit	1, c
   03B2 28 07               841 	jr	Z,00117$
                            842 ;shooting.c:130: bullets[0].direction = 7;
   03B4 21r36r00            843 	ld	hl,#(_bullets + 0x0003)
   03B7 36 07               844 	ld	(hl),#0x07
   03B9 18 15               845 	jr	00118$
   03BB                     846 00117$:
                            847 ;shooting.c:131: } else if (joypad() & J_RIGHT) {
   03BB CDr00r00            848 	call	_joypad
   03BE 0E 00               849 	ld	c,#0x00
   03C0 CB 43               850 	bit	0, e
   03C2 28 07               851 	jr	Z,00114$
                            852 ;shooting.c:132: bullets[0].direction = 6;
   03C4 21r36r00            853 	ld	hl,#(_bullets + 0x0003)
   03C7 36 06               854 	ld	(hl),#0x06
   03C9 18 05               855 	jr	00118$
   03CB                     856 00114$:
                            857 ;shooting.c:134: bullets[0].direction = 2;
   03CB 21r36r00            858 	ld	hl,#(_bullets + 0x0003)
   03CE 36 02               859 	ld	(hl),#0x02
   03D0                     860 00118$:
                            861 ;shooting.c:137: bullets[0].x = playerX;
   03D0 11r33r00            862 	ld	de,#_bullets
   03D3 21r02r00            863 	ld	hl,#_playerX
   03D6 7E                  864 	ld	a,(hl)
   03D7 12                  865 	ld	(de),a
                            866 ;shooting.c:138: bullets[0].y = playerY;
   03D8 11r34r00            867 	ld	de,#(_bullets + 0x0001)
   03DB 21r03r00            868 	ld	hl,#_playerY
   03DE 7E                  869 	ld	a,(hl)
   03DF 12                  870 	ld	(de),a
                            871 ;shooting.c:139: move_sprite(12, bullets[0].x, bullets[0].y); // places sprite on screen
   03E0 7E                  872 	ld	a,(hl)
   03E1 F5                  873 	push	af
   03E2 33                  874 	inc	sp
   03E3 21r02r00            875 	ld	hl,#_playerX
   03E6 7E                  876 	ld	a,(hl)
   03E7 F5                  877 	push	af
   03E8 33                  878 	inc	sp
   03E9 3E 0C               879 	ld	a,#0x0c
   03EB F5                  880 	push	af
   03EC 33                  881 	inc	sp
   03ED CDr00r00            882 	call	_move_sprite
   03F0 E8 03               883 	add	sp, #3
   03F2                     884 00120$:
                            885 ;shooting.c:141: if (playerY == 153){
   03F2 21r03r00            886 	ld	hl,#_playerY
   03F5 7E                  887 	ld	a,(hl)
   03F6 D6 99               888 	sub	a, #0x99
   03F8 20 05               889 	jr	NZ,00124$
                            890 ;shooting.c:142: playerY = 152;
   03FA 21r03r00            891 	ld	hl,#_playerY
   03FD 36 98               892 	ld	(hl),#0x98
   03FF                     893 00124$:
                            894 ;shooting.c:146: if (joypad() & J_LEFT){
   03FF CDr00r00            895 	call	_joypad
   0402 0E 00               896 	ld	c,#0x00
   0404 CB 4B               897 	bit	1, e
   0406 CAr56r04            898 	jp	Z,00130$
                            899 ;shooting.c:148: shooting = 1;
   0409 21r32r00            900 	ld	hl,#_shooting
   040C 36 01               901 	ld	(hl),#0x01
                            902 ;shooting.c:149: playerDir = 3;
   040E 21r04r00            903 	ld	hl,#_playerDir
   0411 36 03               904 	ld	(hl),#0x03
                            905 ;shooting.c:151: if (bullets[0].alive == 0) {
   0413 01r35r00            906 	ld	bc,#_bullets + 2
   0416 0A                  907 	ld	a,(bc)
   0417 B7                  908 	or	a, a
   0418 20 2F               909 	jr	NZ,00126$
                            910 ;shooting.c:152: bullets[0].alive = 1;
   041A 3E 01               911 	ld	a,#0x01
   041C 02                  912 	ld	(bc),a
                            913 ;shooting.c:153: playerX += 2;
   041D 21r02r00            914 	ld	hl,#_playerX
   0420 34                  915 	inc	(hl)
   0421 34                  916 	inc	(hl)
                            917 ;shooting.c:154: bullets[0].direction = 3;
   0422 21r36r00            918 	ld	hl,#(_bullets + 0x0003)
   0425 36 03               919 	ld	(hl),#0x03
                            920 ;shooting.c:155: bullets[0].x = playerX;
   0427 11r33r00            921 	ld	de,#_bullets
   042A 21r02r00            922 	ld	hl,#_playerX
   042D 7E                  923 	ld	a,(hl)
   042E 12                  924 	ld	(de),a
                            925 ;shooting.c:156: bullets[0].y = playerY;
   042F 11r34r00            926 	ld	de,#(_bullets + 0x0001)
   0432 21r03r00            927 	ld	hl,#_playerY
   0435 7E                  928 	ld	a,(hl)
   0436 12                  929 	ld	(de),a
                            930 ;shooting.c:157: move_sprite(12, bullets[0].x, bullets[0].y); // places sprite on screen
   0437 7E                  931 	ld	a,(hl)
   0438 F5                  932 	push	af
   0439 33                  933 	inc	sp
   043A 21r02r00            934 	ld	hl,#_playerX
   043D 7E                  935 	ld	a,(hl)
   043E F5                  936 	push	af
   043F 33                  937 	inc	sp
   0440 3E 0C               938 	ld	a,#0x0c
   0442 F5                  939 	push	af
   0443 33                  940 	inc	sp
   0444 CDr00r00            941 	call	_move_sprite
   0447 E8 03               942 	add	sp, #3
   0449                     943 00126$:
                            944 ;shooting.c:159: if (playerX == 7){
   0449 21r02r00            945 	ld	hl,#_playerX
   044C 7E                  946 	ld	a,(hl)
   044D D6 07               947 	sub	a, #0x07
   044F 20 05               948 	jr	NZ,00130$
                            949 ;shooting.c:160: playerX = 8;
   0451 21r02r00            950 	ld	hl,#_playerX
   0454 36 08               951 	ld	(hl),#0x08
   0456                     952 00130$:
                            953 ;shooting.c:164: if (joypad() & J_RIGHT){
   0456 CDr00r00            954 	call	_joypad
   0459 0E 00               955 	ld	c,#0x00
   045B CB 43               956 	bit	0, e
   045D CArADr04            957 	jp	Z,00136$
                            958 ;shooting.c:166: shooting = 1;
   0460 21r32r00            959 	ld	hl,#_shooting
   0463 36 01               960 	ld	(hl),#0x01
                            961 ;shooting.c:167: playerDir = 1;
   0465 21r04r00            962 	ld	hl,#_playerDir
   0468 36 01               963 	ld	(hl),#0x01
                            964 ;shooting.c:169: if (bullets[0].alive == 0) {
   046A 01r35r00            965 	ld	bc,#_bullets + 2
   046D 0A                  966 	ld	a,(bc)
   046E B7                  967 	or	a, a
   046F 20 2F               968 	jr	NZ,00132$
                            969 ;shooting.c:170: bullets[0].alive = 1;
   0471 3E 01               970 	ld	a,#0x01
   0473 02                  971 	ld	(bc),a
                            972 ;shooting.c:171: playerX -= 2;
   0474 21r02r00            973 	ld	hl,#_playerX
   0477 35                  974 	dec	(hl)
   0478 35                  975 	dec	(hl)
                            976 ;shooting.c:172: bullets[0].direction = 1;
   0479 21r36r00            977 	ld	hl,#(_bullets + 0x0003)
   047C 36 01               978 	ld	(hl),#0x01
                            979 ;shooting.c:173: bullets[0].x = playerX;
   047E 11r33r00            980 	ld	de,#_bullets
   0481 21r02r00            981 	ld	hl,#_playerX
   0484 7E                  982 	ld	a,(hl)
   0485 12                  983 	ld	(de),a
                            984 ;shooting.c:174: bullets[0].y = playerY;
   0486 11r34r00            985 	ld	de,#(_bullets + 0x0001)
   0489 21r03r00            986 	ld	hl,#_playerY
   048C 7E                  987 	ld	a,(hl)
   048D 12                  988 	ld	(de),a
                            989 ;shooting.c:175: move_sprite(12, bullets[0].x, bullets[0].y); // places sprite on screen
   048E 7E                  990 	ld	a,(hl)
   048F F5                  991 	push	af
   0490 33                  992 	inc	sp
   0491 21r02r00            993 	ld	hl,#_playerX
   0494 7E                  994 	ld	a,(hl)
   0495 F5                  995 	push	af
   0496 33                  996 	inc	sp
   0497 3E 0C               997 	ld	a,#0x0c
   0499 F5                  998 	push	af
   049A 33                  999 	inc	sp
   049B CDr00r00           1000 	call	_move_sprite
   049E E8 03              1001 	add	sp, #3
   04A0                    1002 00132$:
                           1003 ;shooting.c:177: if (playerX == 161){
   04A0 21r02r00           1004 	ld	hl,#_playerX
   04A3 7E                 1005 	ld	a,(hl)
   04A4 D6 A1              1006 	sub	a, #0xa1
   04A6 20 05              1007 	jr	NZ,00136$
                           1008 ;shooting.c:178: playerX = 160;
   04A8 21r02r00           1009 	ld	hl,#_playerX
   04AB 36 A0              1010 	ld	(hl),#0xa0
   04AD                    1011 00136$:
                           1012 ;shooting.c:183: if (joypad() & J_A) {
   04AD CDr00r00           1013 	call	_joypad
   04B0 0E 00              1014 	ld	c,#0x00
   04B2 CB 63              1015 	bit	4, e
   04B4 28 1F              1016 	jr	Z,00141$
                           1017 ;shooting.c:184: NR11_REG = 0x7f; // audio channel #1, wave pattern duty
   04B6 21 11 FF           1018 	ld	hl,#0xff11
   04B9 36 7F              1019 	ld	(hl),#0x7f
                           1020 ;shooting.c:185: NR12_REG = 0x7f; // volume for 11
   04BB 2E 12              1021 	ld	l, #0x12
   04BD 36 7F              1022 	ld	(hl),#0x7f
                           1023 ;shooting.c:186: NR13_REG = DIV_REG; // sound frequency least significant bit
   04BF 11 04 FF           1024 	ld	de,#0xff04
   04C2 1A                 1025 	ld	a,(de)
   04C3 11 13 FF           1026 	ld	de,#0xff13
   04C6 12                 1027 	ld	(de),a
                           1028 ;shooting.c:187: NR14_REG = 0x80 + (DIV_REG % 8); // sound frequency significant 3 bits
   04C7 11 04 FF           1029 	ld	de,#0xff04
   04CA 1A                 1030 	ld	a,(de)
   04CB E6 07              1031 	and	a, #0x07
   04CD C6 80              1032 	add	a, #0x80
   04CF 11 14 FF           1033 	ld	de,#0xff14
   04D2 12                 1034 	ld	(de),a
   04D3 18 1F              1035 	jr	00142$
   04D5                    1036 00141$:
                           1037 ;shooting.c:188: } else if (joypad() & J_B) {
   04D5 CDr00r00           1038 	call	_joypad
   04D8 0E 00              1039 	ld	c,#0x00
   04DA CB 6B              1040 	bit	5, e
   04DC 20 16              1041 	jr	NZ,00142$
                           1042 ;shooting.c:192: NR11_REG = 0x00;
   04DE 21 11 FF           1043 	ld	hl,#0xff11
   04E1 36 00              1044 	ld	(hl),#0x00
                           1045 ;shooting.c:193: NR12_REG = 0x00;
   04E3 2E 12              1046 	ld	l, #0x12
   04E5 36 00              1047 	ld	(hl),#0x00
                           1048 ;shooting.c:194: NR13_REG = 0x00;
   04E7 2E 13              1049 	ld	l, #0x13
   04E9 36 00              1050 	ld	(hl),#0x00
                           1051 ;shooting.c:195: NR14_REG = 0x00;
   04EB 2E 14              1052 	ld	l, #0x14
   04ED 36 00              1053 	ld	(hl),#0x00
                           1054 ;shooting.c:197: shooting = 0;
   04EF 21r32r00           1055 	ld	hl,#_shooting
   04F2 36 00              1056 	ld	(hl),#0x00
   04F4                    1057 00142$:
                           1058 ;shooting.c:200: move_sprite(0,playerX,playerY); // position player sprite on screen
   04F4 21r03r00           1059 	ld	hl,#_playerY
   04F7 7E                 1060 	ld	a,(hl)
   04F8 F5                 1061 	push	af
   04F9 33                 1062 	inc	sp
   04FA 21r02r00           1063 	ld	hl,#_playerX
   04FD 7E                 1064 	ld	a,(hl)
   04FE F5                 1065 	push	af
   04FF 33                 1066 	inc	sp
   0500 AF                 1067 	xor	a, a
   0501 F5                 1068 	push	af
   0502 33                 1069 	inc	sp
   0503 CDr00r00           1070 	call	_move_sprite
   0506 E8 03              1071 	add	sp, #3
                           1072 ;shooting.c:202: if (bullets[0].x > 160 || bullets[0].x == 0 || bullets[0].y > 152 || bullets[0].y == 0) {
   0508 11r33r00           1073 	ld	de, #_bullets + 0
   050B 1A                 1074 	ld	a,(de)
   050C 4F                 1075 	ld	c,a
   050D 3E A0              1076 	ld	a,#0xa0
   050F 91                 1077 	sub	a, c
   0510 38 15              1078 	jr	C,00160$
   0512 79                 1079 	ld	a,c
   0513 B7                 1080 	or	a, a
   0514 28 11              1081 	jr	Z,00160$
   0516 01r34r00           1082 	ld	bc,#_bullets + 1
   0519 0A                 1083 	ld	a,(bc)
   051A F8 01              1084 	ldhl	sp,#1
   051C 77                 1085 	ld	(hl),a
   051D 3E 98              1086 	ld	a,#0x98
   051F 96                 1087 	sub	a, (hl)
   0520 38 05              1088 	jr	C,00160$
   0522 7E                 1089 	ld	a,(hl)
   0523 B7                 1090 	or	a, a
   0524 C2rADr05           1091 	jp	NZ,00161$
   0527                    1092 00160$:
                           1093 ;shooting.c:203: if (shooting == 1) {
   0527 21r32r00           1094 	ld	hl,#_shooting
   052A 7E                 1095 	ld	a,(hl)
   052B 3D                 1096 	dec	a
   052C C2r9Br05           1097 	jp	NZ,00149$
                           1098 ;shooting.c:204: bullets[0].alive = 1;
   052F 11r33r00           1099 	ld	de,#_bullets+0
   0532 4B                 1100 	ld	c,e
   0533 42                 1101 	ld	b,d
   0534 21r35r00           1102 	ld	hl,#(_bullets + 0x0002)
   0537 36 01              1103 	ld	(hl),#0x01
                           1104 ;shooting.c:205: switch (playerDir) {
   0539 3E 03              1105 	ld	a,#0x03
   053B 21r04r00           1106 	ld	hl,#_playerDir
   053E 96                 1107 	sub	a, (hl)
   053F DAr40r06           1108 	jp	C,00162$
                           1109 ;shooting.c:208: bullets[0].y = playerY - 8;
                           1110 ;shooting.c:211: bullets[0].x = playerX + 8;
   0542 21r02r00           1111 	ld	hl,#_playerX
   0545 7E                 1112 	ld	a,(hl)
   0546 C6 08              1113 	add	a, #0x08
   0548 5F                 1114 	ld	e,a
                           1115 ;shooting.c:205: switch (playerDir) {
   0549 21r04r00           1116 	ld	hl,#_playerDir
   054C 5E                 1117 	ld	e,(hl)
   054D 16 00              1118 	ld	d,#0x00
   054F 21r55r05           1119 	ld	hl,#00309$
   0552 19                 1120 	add	hl,de
   0553 19                 1121 	add	hl,de
                           1122 ;shooting.c:206: case 0:
   0554 E9                 1123 	jp	(hl)
   0555                    1124 00309$:
   0555 18 06              1125 	jr	00143$
   0557 18 16              1126 	jr	00144$
   0559 18 21              1127 	jr	00145$
   055B 18 31              1128 	jr	00146$
   055D                    1129 00143$:
                           1130 ;shooting.c:207: bullets[0].x = playerX;
   055D 21r02r00           1131 	ld	hl,#_playerX
   0560 7E                 1132 	ld	a,(hl)
   0561 02                 1133 	ld	(bc),a
                           1134 ;shooting.c:208: bullets[0].y = playerY - 8;
   0562 21r03r00           1135 	ld	hl,#_playerY
   0565 7E                 1136 	ld	a,(hl)
   0566 C6 F8              1137 	add	a,#0xf8
   0568 11r34r00           1138 	ld	de,#(_bullets + 0x0001)
   056B 12                 1139 	ld	(de),a
                           1140 ;shooting.c:209: break;
   056C C3r40r06           1141 	jp	00162$
                           1142 ;shooting.c:210: case 1:
   056F                    1143 00144$:
                           1144 ;shooting.c:211: bullets[0].x = playerX + 8;
   056F 7B                 1145 	ld	a,e
   0570 02                 1146 	ld	(bc),a
                           1147 ;shooting.c:212: bullets[0].y = playerY;
   0571 11r34r00           1148 	ld	de,#(_bullets + 0x0001)
   0574 21r03r00           1149 	ld	hl,#_playerY
   0577 7E                 1150 	ld	a,(hl)
   0578 12                 1151 	ld	(de),a
                           1152 ;shooting.c:213: break;
   0579 C3r40r06           1153 	jp	00162$
                           1154 ;shooting.c:214: case 2:
   057C                    1155 00145$:
                           1156 ;shooting.c:215: bullets[0].x = playerX;
   057C 21r02r00           1157 	ld	hl,#_playerX
   057F 7E                 1158 	ld	a,(hl)
   0580 02                 1159 	ld	(bc),a
                           1160 ;shooting.c:216: bullets[0].y = playerY - 8;
   0581 21r03r00           1161 	ld	hl,#_playerY
   0584 7E                 1162 	ld	a,(hl)
   0585 C6 F8              1163 	add	a,#0xf8
   0587 11r34r00           1164 	ld	de,#(_bullets + 0x0001)
   058A 12                 1165 	ld	(de),a
                           1166 ;shooting.c:217: break;
   058B C3r40r06           1167 	jp	00162$
                           1168 ;shooting.c:218: case 3:
   058E                    1169 00146$:
                           1170 ;shooting.c:219: bullets[0].x = playerX + 8;
   058E 7B                 1171 	ld	a,e
   058F 02                 1172 	ld	(bc),a
                           1173 ;shooting.c:220: bullets[0].y = playerY;
   0590 11r34r00           1174 	ld	de,#(_bullets + 0x0001)
   0593 21r03r00           1175 	ld	hl,#_playerY
   0596 7E                 1176 	ld	a,(hl)
   0597 12                 1177 	ld	(de),a
                           1178 ;shooting.c:222: }
   0598 C3r40r06           1179 	jp	00162$
   059B                    1180 00149$:
                           1181 ;shooting.c:224: bullets[0].alive = 0;
   059B 21r35r00           1182 	ld	hl,#(_bullets + 0x0002)
   059E 36 00              1183 	ld	(hl),#0x00
                           1184 ;shooting.c:225: bullets[0].x = 0;
   05A0 21r33r00           1185 	ld	hl,#_bullets
   05A3 36 00              1186 	ld	(hl),#0x00
                           1187 ;shooting.c:226: bullets[0].y = 0;
   05A5 21r34r00           1188 	ld	hl,#(_bullets + 0x0001)
   05A8 36 00              1189 	ld	(hl),#0x00
   05AA C3r40r06           1190 	jp	00162$
   05AD                    1191 00161$:
                           1192 ;shooting.c:229: switch (bullets[0].direction) {
   05AD 11r36r00           1193 	ld	de, #(_bullets + 0x0003) + 0
   05B0 1A                 1194 	ld	a,(de)
   05B1 F8 00              1195 	ldhl	sp,#0
   05B3 77                 1196 	ld	(hl),a
   05B4 3E 07              1197 	ld	a,#0x07
   05B6 96                 1198 	sub	a, (hl)
   05B7 DAr40r06           1199 	jp	C,00162$
   05BA 5E                 1200 	ld	e,(hl)
   05BB 16 00              1201 	ld	d,#0x00
   05BD 21rC4r05           1202 	ld	hl,#00310$
   05C0 19                 1203 	add	hl,de
   05C1 19                 1204 	add	hl,de
   05C2 19                 1205 	add	hl,de
   05C3 E9                 1206 	jp	(hl)
   05C4                    1207 00310$:
   05C4 C3rDCr05           1208 	jp	00151$
   05C7 C3rE5r05           1209 	jp	00152$
   05CA C3rF1r05           1210 	jp	00153$
   05CD C3rFAr05           1211 	jp	00154$
   05D0 C3r06r06           1212 	jp	00155$
   05D3 C3r15r06           1213 	jp	00156$
   05D6 C3r24r06           1214 	jp	00157$
   05D9 C3r33r06           1215 	jp	00158$
                           1216 ;shooting.c:230: case 0:
   05DC                    1217 00151$:
                           1218 ;shooting.c:231: bullets[0].y -= 5;
   05DC F8 01              1219 	ldhl	sp,#1
   05DE 7E                 1220 	ld	a,(hl)
   05DF C6 FB              1221 	add	a,#0xfb
   05E1 02                 1222 	ld	(bc),a
                           1223 ;shooting.c:232: break;
   05E2 C3r40r06           1224 	jp	00162$
                           1225 ;shooting.c:233: case 1:
   05E5                    1226 00152$:
                           1227 ;shooting.c:234: bullets[0].x += 5;
   05E5 FAr33r00           1228 	ld	a, (#_bullets + 0)
   05E8 C6 05              1229 	add	a, #0x05
   05EA 11r33r00           1230 	ld	de,#_bullets
   05ED 12                 1231 	ld	(de),a
                           1232 ;shooting.c:235: break;
   05EE C3r40r06           1233 	jp	00162$
                           1234 ;shooting.c:236: case 2:
   05F1                    1235 00153$:
                           1236 ;shooting.c:237: bullets[0].y += 5;
   05F1 F8 01              1237 	ldhl	sp,#1
   05F3 7E                 1238 	ld	a,(hl)
   05F4 C6 05              1239 	add	a, #0x05
   05F6 02                 1240 	ld	(bc),a
                           1241 ;shooting.c:238: break;
   05F7 C3r40r06           1242 	jp	00162$
                           1243 ;shooting.c:239: case 3:
   05FA                    1244 00154$:
                           1245 ;shooting.c:240: bullets[0].x -= 5;
   05FA FAr33r00           1246 	ld	a, (#_bullets + 0)
   05FD C6 FB              1247 	add	a,#0xfb
   05FF 11r33r00           1248 	ld	de,#_bullets
   0602 12                 1249 	ld	(de),a
                           1250 ;shooting.c:241: break;
   0603 C3r40r06           1251 	jp	00162$
                           1252 ;shooting.c:242: case 4:
   0606                    1253 00155$:
                           1254 ;shooting.c:243: bullets[0].x -= 5;
   0606 FAr33r00           1255 	ld	a, (#_bullets + 0)
   0609 C6 FB              1256 	add	a,#0xfb
   060B 11r33r00           1257 	ld	de,#_bullets
   060E 12                 1258 	ld	(de),a
                           1259 ;shooting.c:244: bullets[0].y -= 5;
   060F 0A                 1260 	ld	a,(bc)
   0610 C6 FB              1261 	add	a,#0xfb
   0612 02                 1262 	ld	(bc),a
                           1263 ;shooting.c:245: break;
   0613 18 2B              1264 	jr	00162$
                           1265 ;shooting.c:246: case 5:
   0615                    1266 00156$:
                           1267 ;shooting.c:247: bullets[0].x += 5;
   0615 FAr33r00           1268 	ld	a, (#_bullets + 0)
   0618 C6 05              1269 	add	a, #0x05
   061A 11r33r00           1270 	ld	de,#_bullets
   061D 12                 1271 	ld	(de),a
                           1272 ;shooting.c:248: bullets[0].y -= 5;
   061E 0A                 1273 	ld	a,(bc)
   061F C6 FB              1274 	add	a,#0xfb
   0621 02                 1275 	ld	(bc),a
                           1276 ;shooting.c:249: break;
   0622 18 1C              1277 	jr	00162$
                           1278 ;shooting.c:250: case 6:
   0624                    1279 00157$:
                           1280 ;shooting.c:251: bullets[0].x += 5;
   0624 FAr33r00           1281 	ld	a, (#_bullets + 0)
   0627 C6 05              1282 	add	a, #0x05
   0629 11r33r00           1283 	ld	de,#_bullets
   062C 12                 1284 	ld	(de),a
                           1285 ;shooting.c:252: bullets[0].y += 5;
   062D 0A                 1286 	ld	a,(bc)
   062E C6 05              1287 	add	a, #0x05
   0630 02                 1288 	ld	(bc),a
                           1289 ;shooting.c:253: break;
   0631 18 0D              1290 	jr	00162$
                           1291 ;shooting.c:254: case 7:
   0633                    1292 00158$:
                           1293 ;shooting.c:255: bullets[0].x -= 5;
   0633 FAr33r00           1294 	ld	a, (#_bullets + 0)
   0636 C6 FB              1295 	add	a,#0xfb
   0638 11r33r00           1296 	ld	de,#_bullets
   063B 12                 1297 	ld	(de),a
                           1298 ;shooting.c:256: bullets[0].y += 5;
   063C 0A                 1299 	ld	a,(bc)
   063D C6 05              1300 	add	a, #0x05
   063F 02                 1301 	ld	(bc),a
                           1302 ;shooting.c:258: }
   0640                    1303 00162$:
                           1304 ;shooting.c:261: move_sprite(12, bullets[0].x, bullets[0].y);
   0640 11r34r00           1305 	ld	de, #(_bullets + 0x0001) + 0
   0643 1A                 1306 	ld	a,(de)
   0644 47                 1307 	ld	b,a
   0645 FAr33r00           1308 	ld	a, (#_bullets + 0)
   0648 C5                 1309 	push	bc
   0649 33                 1310 	inc	sp
   064A F5                 1311 	push	af
   064B 33                 1312 	inc	sp
   064C 3E 0C              1313 	ld	a,#0x0c
   064E F5                 1314 	push	af
   064F 33                 1315 	inc	sp
   0650 CDr00r00           1316 	call	_move_sprite
   0653 E8 03              1317 	add	sp, #3
                           1318 ;shooting.c:263: j = 0; // re use j for collision - saves space
   0655 21r01r00           1319 	ld	hl,#_j
   0658 36 00              1320 	ld	(hl),#0x00
                           1321 ;shooting.c:265: for (i=0; i != 10; i++) {
   065A 21r00r00           1322 	ld	hl,#_i
   065D 36 00              1323 	ld	(hl),#0x00
   065F                    1324 00172$:
                           1325 ;shooting.c:266: if (collisionCheck(playerX, playerY, 8, 8, eX[i], eY[i], 8, 8) == 1){
   065F 3Er0F              1326 	ld	a,#<(_eY)
   0661 21r00r00           1327 	ld	hl,#_i
   0664 86                 1328 	add	a, (hl)
   0665 4F                 1329 	ld	c,a
   0666 3Es00              1330 	ld	a,#>(_eY)
   0668 CE 00              1331 	adc	a, #0x00
   066A 47                 1332 	ld	b,a
   066B 0A                 1333 	ld	a,(bc)
   066C F8 00              1334 	ldhl	sp,#0
   066E 77                 1335 	ld	(hl),a
   066F 3Er05              1336 	ld	a,#<(_eX)
   0671 21r00r00           1337 	ld	hl,#_i
   0674 86                 1338 	add	a, (hl)
   0675 4F                 1339 	ld	c,a
   0676 3Es00              1340 	ld	a,#>(_eX)
   0678 CE 00              1341 	adc	a, #0x00
   067A 47                 1342 	ld	b,a
   067B 0A                 1343 	ld	a,(bc)
   067C 47                 1344 	ld	b,a
   067D 21 08 08           1345 	ld	hl,#0x0808
   0680 E5                 1346 	push	hl
   0681 F8 02              1347 	ldhl	sp,#2
   0683 7E                 1348 	ld	a,(hl)
   0684 F5                 1349 	push	af
   0685 33                 1350 	inc	sp
   0686 C5                 1351 	push	bc
   0687 33                 1352 	inc	sp
   0688 21 08 08           1353 	ld	hl,#0x0808
   068B E5                 1354 	push	hl
   068C 21r03r00           1355 	ld	hl,#_playerY
   068F 7E                 1356 	ld	a,(hl)
   0690 F5                 1357 	push	af
   0691 33                 1358 	inc	sp
   0692 21r02r00           1359 	ld	hl,#_playerX
   0695 7E                 1360 	ld	a,(hl)
   0696 F5                 1361 	push	af
   0697 33                 1362 	inc	sp
   0698 CDrCDr06           1363 	call	_collisionCheck
   069B E8 08              1364 	add	sp, #8
   069D 1D                 1365 	dec	e
   069E 20 05              1366 	jr	NZ,00173$
                           1367 ;shooting.c:267: j= 1; // if a collision happens
   06A0 21r01r00           1368 	ld	hl,#_j
   06A3 36 01              1369 	ld	(hl),#0x01
   06A5                    1370 00173$:
                           1371 ;shooting.c:265: for (i=0; i != 10; i++) {
   06A5 21r00r00           1372 	ld	hl,#_i
   06A8 34                 1373 	inc	(hl)
   06A9 7E                 1374 	ld	a,(hl)
   06AA D6 0A              1375 	sub	a, #0x0a
   06AC C2r5Fr06           1376 	jp	NZ,00172$
                           1377 ;shooting.c:272: switch (j) {
   06AF 21r01r00           1378 	ld	hl,#_j
   06B2 7E                 1379 	ld	a,(hl)
   06B3 B7                 1380 	or	a, a
   06B4 20 0B              1381 	jr	NZ,00170$
                           1382 ;shooting.c:275: set_sprite_tile(0,0);
   06B6 21 00 00           1383 	ld	hl,#0x0000
   06B9 E5                 1384 	push	hl
   06BA CDr00r00           1385 	call	_set_sprite_tile
   06BD E8 02              1386 	add	sp, #2
                           1387 ;shooting.c:276: break;
   06BF 18 09              1388 	jr	00174$
                           1389 ;shooting.c:279: default:
   06C1                    1390 00170$:
                           1391 ;shooting.c:280: set_sprite_tile(0,1);
   06C1 21 00 01           1392 	ld	hl,#0x0100
   06C4 E5                 1393 	push	hl
   06C5 CDr00r00           1394 	call	_set_sprite_tile
   06C8 E8 02              1395 	add	sp, #2
                           1396 ;shooting.c:282: }
   06CA                    1397 00174$:
   06CA E8 02              1398 	add	sp, #2
   06CC C9                 1399 	ret
                           1400 ;shooting.c:287: UINT8 collisionCheck(UINT8 x1, UINT8 y1, UINT8 w1, UINT8 h1, UINT8 x2, UINT8 y2, UINT8 w2, UINT8 h2){
                           1401 ;	---------------------------------
                           1402 ; Function collisionCheck
                           1403 ; ---------------------------------
   06CD                    1404 _collisionCheck::
   06CD E8 FC              1405 	add	sp, #-4
                           1406 ;shooting.c:288: if ((x1 < (x2+w2)) && ((x1+w1) > x2) && (y1 < (h2+y2)) && ((y1+h1) > y2)){
   06CF F8 0A              1407 	ldhl	sp,#10
   06D1 7E                 1408 	ld	a,(hl)
   06D2 F8 02              1409 	ldhl	sp,#2
   06D4 22                 1410 	ld	(hl+),a
   06D5 36 00              1411 	ld	(hl),#0x00
   06D7 F8 0C              1412 	ldhl	sp,#12
   06D9 4E                 1413 	ld	c,(hl)
   06DA 06 00              1414 	ld	b,#0x00
   06DC F8 02              1415 	ldhl	sp,#2
   06DE 2A                 1416 	ld	a,(hl+)
   06DF 66                 1417 	ld	h,(hl)
   06E0 6F                 1418 	ld	l,a
   06E1 09                 1419 	add	hl,bc
   06E2 4D                 1420 	ld	c,l
   06E3 44                 1421 	ld	b,h
   06E4 F8 06              1422 	ldhl	sp,#6
   06E6 7E                 1423 	ld	a,(hl)
   06E7 F8 00              1424 	ldhl	sp,#0
   06E9 22                 1425 	ld	(hl+),a
   06EA 36 00              1426 	ld	(hl),#0x00
   06EC 2B                 1427 	dec	hl
   06ED 7E                 1428 	ld	a, (hl)
   06EE 91                 1429 	sub	a, c
   06EF 23                 1430 	inc	hl
   06F0 7E                 1431 	ld	a, (hl)
   06F1 98                 1432 	sbc	a, b
   06F2 56                 1433 	ld	d, (hl)
   06F3 78                 1434 	ld	a,b
   06F4 5F                 1435 	ld	e, a
   06F5 CB 7B              1436 	bit	7, e
   06F7 28 07              1437 	jr	Z,00125$
   06F9 CB 7A              1438 	bit	7, d
   06FB 20 08              1439 	jr	NZ,00126$
   06FD BF                 1440 	cp	a, a
   06FE 18 05              1441 	jr	00126$
   0700                    1442 00125$:
   0700 CB 7A              1443 	bit	7, d
   0702 28 01              1444 	jr	Z,00126$
   0704 37                 1445 	scf
   0705                    1446 00126$:
   0705 D2r92r07           1447 	jp	NC,00102$
   0708 F8 08              1448 	ldhl	sp,#8
   070A 4E                 1449 	ld	c,(hl)
   070B 06 00              1450 	ld	b,#0x00
   070D E1                 1451 	pop	hl
   070E E5                 1452 	push	hl
   070F 09                 1453 	add	hl,bc
   0710 4D                 1454 	ld	c,l
   0711 44                 1455 	ld	b,h
   0712 F8 02              1456 	ldhl	sp,#2
   0714 7E                 1457 	ld	a, (hl)
   0715 91                 1458 	sub	a, c
   0716 23                 1459 	inc	hl
   0717 7E                 1460 	ld	a, (hl)
   0718 98                 1461 	sbc	a, b
   0719 56                 1462 	ld	d, (hl)
   071A 78                 1463 	ld	a,b
   071B 5F                 1464 	ld	e, a
   071C CB 7B              1465 	bit	7, e
   071E 28 07              1466 	jr	Z,00127$
   0720 CB 7A              1467 	bit	7, d
   0722 20 08              1468 	jr	NZ,00128$
   0724 BF                 1469 	cp	a, a
   0725 18 05              1470 	jr	00128$
   0727                    1471 00127$:
   0727 CB 7A              1472 	bit	7, d
   0729 28 01              1473 	jr	Z,00128$
   072B 37                 1474 	scf
   072C                    1475 00128$:
   072C D2r92r07           1476 	jp	NC,00102$
   072F F8 0D              1477 	ldhl	sp,#13
   0731 4E                 1478 	ld	c,(hl)
   0732 06 00              1479 	ld	b,#0x00
   0734 2B                 1480 	dec	hl
   0735 2B                 1481 	dec	hl
   0736 7E                 1482 	ld	a,(hl)
   0737 F8 00              1483 	ldhl	sp,#0
   0739 22                 1484 	ld	(hl+),a
   073A 36 00              1485 	ld	(hl),#0x00
   073C E1                 1486 	pop	hl
   073D E5                 1487 	push	hl
   073E 09                 1488 	add	hl,bc
   073F 4D                 1489 	ld	c,l
   0740 44                 1490 	ld	b,h
   0741 F8 07              1491 	ldhl	sp,#7
   0743 7E                 1492 	ld	a,(hl)
   0744 F8 02              1493 	ldhl	sp,#2
   0746 22                 1494 	ld	(hl+),a
   0747 36 00              1495 	ld	(hl),#0x00
   0749 2B                 1496 	dec	hl
   074A 7E                 1497 	ld	a, (hl)
   074B 91                 1498 	sub	a, c
   074C 23                 1499 	inc	hl
   074D 7E                 1500 	ld	a, (hl)
   074E 98                 1501 	sbc	a, b
   074F 56                 1502 	ld	d, (hl)
   0750 78                 1503 	ld	a,b
   0751 5F                 1504 	ld	e, a
   0752 CB 7B              1505 	bit	7, e
   0754 28 07              1506 	jr	Z,00129$
   0756 CB 7A              1507 	bit	7, d
   0758 20 08              1508 	jr	NZ,00130$
   075A BF                 1509 	cp	a, a
   075B 18 05              1510 	jr	00130$
   075D                    1511 00129$:
   075D CB 7A              1512 	bit	7, d
   075F 28 01              1513 	jr	Z,00130$
   0761 37                 1514 	scf
   0762                    1515 00130$:
   0762 D2r92r07           1516 	jp	NC,00102$
   0765 F8 09              1517 	ldhl	sp,#9
   0767 4E                 1518 	ld	c,(hl)
   0768 06 00              1519 	ld	b,#0x00
   076A F8 02              1520 	ldhl	sp,#2
   076C 2A                 1521 	ld	a,(hl+)
   076D 66                 1522 	ld	h,(hl)
   076E 6F                 1523 	ld	l,a
   076F 09                 1524 	add	hl,bc
   0770 4D                 1525 	ld	c,l
   0771 44                 1526 	ld	b,h
   0772 F8 00              1527 	ldhl	sp,#0
   0774 7E                 1528 	ld	a, (hl)
   0775 91                 1529 	sub	a, c
   0776 23                 1530 	inc	hl
   0777 7E                 1531 	ld	a, (hl)
   0778 98                 1532 	sbc	a, b
   0779 56                 1533 	ld	d, (hl)
   077A 78                 1534 	ld	a,b
   077B 5F                 1535 	ld	e, a
   077C CB 7B              1536 	bit	7, e
   077E 28 07              1537 	jr	Z,00131$
   0780 CB 7A              1538 	bit	7, d
   0782 20 08              1539 	jr	NZ,00132$
   0784 BF                 1540 	cp	a, a
   0785 18 05              1541 	jr	00132$
   0787                    1542 00131$:
   0787 CB 7A              1543 	bit	7, d
   0789 28 01              1544 	jr	Z,00132$
   078B 37                 1545 	scf
   078C                    1546 00132$:
   078C 30 04              1547 	jr	NC,00102$
                           1548 ;shooting.c:289: return 1;
   078E 1E 01              1549 	ld	e,#0x01
   0790 18 02              1550 	jr	00107$
   0792                    1551 00102$:
                           1552 ;shooting.c:291: return 0;
   0792 1E 00              1553 	ld	e,#0x00
   0794                    1554 00107$:
   0794 E8 04              1555 	add	sp, #4
   0796 C9                 1556 	ret
                           1557 	.area _CODE
                           1558 	.area _CABS (ABS)
